target datalayout = "e-m:e-p270:32:32-p271:32:32-p272:64:64-i64:64-i128:128-f80:128-n8:16:32:64-S128"
target triple = "x86_64-pc-linux-gnu"

%struct.UserData_ = type { double, i32, double, double, double, i32, i32, i32, i32 }

; Function Attrs: nounwind uwtable
define internal i32 @f(double noundef %0, ptr noundef %1, ptr noundef %2, ptr noundef %3) #0 {
  %5 = alloca double, align 8
  %6 = alloca ptr, align 8
  %7 = alloca ptr, align 8
  %8 = alloca ptr, align 8
  %9 = alloca ptr, align 8
  %10 = alloca ptr, align 8
  %11 = alloca ptr, align 8
  store double %0, ptr %5, align 8, !tbaa !11
  store ptr %1, ptr %6, align 8, !tbaa !18
  store ptr %2, ptr %7, align 8, !tbaa !18
  store ptr %3, ptr %8, align 8, !tbaa !17
  call void @llvm.lifetime.start.p0(i64 8, ptr %9) #8
  %12 = load ptr, ptr %8, align 8, !tbaa !17
  store ptr %12, ptr %9, align 8, !tbaa !13
  call void @llvm.lifetime.start.p0(i64 8, ptr %10) #8
  %13 = load ptr, ptr %6, align 8, !tbaa !18
  %14 = call ptr @N_VGetArrayPointer(ptr noundef %13)
  store ptr %14, ptr %10, align 8, !tbaa !20
  call void @llvm.lifetime.start.p0(i64 8, ptr %11) #8
  %15 = load ptr, ptr %7, align 8, !tbaa !18
  %16 = call ptr @N_VGetArrayPointer(ptr noundef %15)
  store ptr %16, ptr %11, align 8, !tbaa !20
  %17 = load ptr, ptr %9, align 8, !tbaa !13
  %18 = getelementptr inbounds nuw %struct.UserData_, ptr %17, i32 0, i32 0
  %19 = load double, ptr %18, align 8, !tbaa !43
  %20 = fneg double %19
  %21 = load ptr, ptr %10, align 8, !tbaa !20
  %22 = getelementptr inbounds double, ptr %21, i64 1
  %23 = load double, ptr %22, align 8, !tbaa !11
  %24 = fmul double %20, %23
  %25 = load ptr, ptr %11, align 8, !tbaa !20
  %26 = getelementptr inbounds double, ptr %25, i64 0
  store double %24, ptr %26, align 8, !tbaa !11
  %27 = load ptr, ptr %9, align 8, !tbaa !13
  %28 = getelementptr inbounds nuw %struct.UserData_, ptr %27, i32 0, i32 0
  %29 = load double, ptr %28, align 8, !tbaa !43
  %30 = load ptr, ptr %10, align 8, !tbaa !20
  %31 = getelementptr inbounds double, ptr %30, i64 0
  %32 = load double, ptr %31, align 8, !tbaa !11
  %33 = fmul double %29, %32
  %34 = load ptr, ptr %11, align 8, !tbaa !20
  %35 = getelementptr inbounds double, ptr %34, i64 1
  store double %33, ptr %35, align 8, !tbaa !11
  call void @llvm.lifetime.end.p0(i64 8, ptr %11) #8
  call void @llvm.lifetime.end.p0(i64 8, ptr %10) #8
  call void @llvm.lifetime.end.p0(i64 8, ptr %9) #8
  ret i32 0
}