; Function Attrs: nounwind uwtable
define internal noundef i32 @f(double %0, ptr noundef %1, ptr noundef %2, ptr noundef readonly captures(none) %3) #0 {
  %5 = tail call ptr @N_VGetArrayPointer(ptr noundef %1) #13
  %6 = tail call ptr @N_VGetArrayPointer(ptr noundef %2) #13
  %7 = load double, ptr %3, align 8, !tbaa !13
  %8 = fneg double %7
  %9 = getelementptr inbounds nuw i8, ptr %5, i64 8
  %10 = load double, ptr %9, align 8, !tbaa !4
  %11 = fmul double %10, %8
  store double %11, ptr %6, align 8, !tbaa !4
  %12 = load double, ptr %3, align 8, !tbaa !13
  %13 = load double, ptr %5, align 8, !tbaa !4
  %14 = fmul double %12, %13
  %15 = getelementptr inbounds nuw i8, ptr %6, i64 8
  store double %14, ptr %15, align 8, !tbaa !4
  ret i32 0
}